; Function Attrs: cold nounwind optsize uwtable
define noundef i32 @ff_vp56_free_context(ptr noundef %0) local_unnamed_addr #3 {
  %2 = getelementptr inbounds nuw i8, ptr %0, i64 856
  tail call void @av_freep(ptr noundef nonnull %2) #8
  %3 = getelementptr inbounds nuw i8, ptr %0, i64 960
  tail call void @av_freep(ptr noundef nonnull %3) #8
  %4 = getelementptr inbounds nuw i8, ptr %0, i64 688
  tail call void @av_freep(ptr noundef nonnull %4) #8
  %5 = getelementptr inbounds nuw i8, ptr %0, i64 656
  br label %6

6:                                                ; preds = %1, %6
  %indvars.iv = phi i64 [ 0, %1 ], [ %indvars.iv.next, %6 ]
  %7 = getelementptr inbounds nuw [4 x ptr], ptr %5, i64 0, i64 %indvars.iv
  tail call void @av_frame_free(ptr noundef nonnull %7) #8
  %indvars.iv.next = add nuw nsw i64 %indvars.iv, 1
  %exitcond.not = icmp eq i64 %indvars.iv.next, 4
  br i1 %exitcond.not, label %8, label %6, !llvm.loop !150

8:                                                ; preds = %6
  ret i32 0
}